(lp1
S'PatientIntroduction_Title'
p2
aS'PatientIntroduction_GivenNames/Initials'
p3
aS'PatientIntroduction_Lastname'
p4
aS'PatientIntroduction_Ageinyears'
p5
aS'PatientIntroduction_Gender'
p6
aS'PatientIntroduction_CurrentRoom'
p7
aS'PatientIntroduction_CurrentBed'
p8
aS'PatientIntroduction_UnderDr_GivenNames/Initials'
p9
aS'PatientIntroduction_UnderDr_Lastname'
p10
aS'PatientIntroduction_AdmissionReason/Diagnosis'
p11
aS'PatientIntroduction_Allergy'
p12
aS'PatientIntroduction_ChronicCondition'
p13
aS'PatientIntroduction_Disease/ProblemHistory'
p14
aS'PatientIntroduction_CarePlan'
p15
aS'MyShift_Status'
p16
aS'MyShift_Contraption'
p17
aS'MyShift_Input/Diet'
p18
aS'MyShift_Output/Diuresis/BowelMovement'
p19
aS'MyShift_Wounds/Skin'
p20
aS'MyShift_ActivitiesOfDailyLiving'
p21
aS'MyShift_RiskManagement'
p22
aS'MyShift_OtherObservation'
p23
aS'Appointment/Procedure_Status'
p24
aS'Appointment/Procedure_Description'
p25
aS'Appointment/Procedure_ClinicianTitle'
p26
aS'Appointment/Procedure_ClinicianGivenNames/Initials'
p27
aS'Appointment/Procedure_ClinicianLastname'
p28
aS'Appointment/Procedure_Hospital'
p29
aS'Appointment/Procedure_Day'
p30
aS'Appointment/Procedure_Time'
p31
aS'Appointment/Procedure_City'
p32
aS'Appointment/Procedure_Ward'
p33
aS'Medication_Medicine'
p34
aS'Medication_Dosage'
p35
aS'Medication_Status'
p36
aS'Future_Alert/Warning/AbnormalResult'
p37
aS'Future_Goal/TaskToBeCompleted/ExpectedOutcome'
p38
aS'Future_Discharge/TransferPlan'
p39
aS'NA'
p40
a.