(lp1
S'PatientIntroduction_GivenNames/Initials'
p2
aS'PatientIntroduction_Lastname'
p3
aS'PatientIntroduction_Ageinyears'
p4
aS'PatientIntroduction_Gender'
p5
aS'PatientIntroduction_CurrentRoom'
p6
aS'PatientIntroduction_CurrentBed'
p7
aS'PatientIntroduction_UnderDr_GivenNames/Initials'
p8
aS'PatientIntroduction_UnderDr_Lastname'
p9
aS'PatientIntroduction_AdmissionReason/Diagnosis'
p10
aS'PatientIntroduction_Allergy'
p11
aS'PatientIntroduction_ChronicCondition'
p12
aS'PatientIntroduction_Disease/ProblemHistory'
p13
aS'PatientIntroduction_CarePlan'
p14
aS'MyShift_Status'
p15
aS'MyShift_Contraption'
p16
aS'MyShift_Input/Diet'
p17
aS'MyShift_Output/Diuresis/BowelMovement'
p18
aS'MyShift_Wounds/Skin'
p19
aS'MyShift_ActivitiesOfDailyLiving'
p20
aS'MyShift_RiskManagement'
p21
aS'MyShift_OtherObservation'
p22
aS'Appointment/Procedure_Status'
p23
aS'Appointment/Procedure_Description'
p24
aS'Appointment/Procedure_ClinicianGivenNames/Initials'
p25
aS'Appointment/Procedure_ClinicianLastname'
p26
aS'Appointment/Procedure_Day'
p27
aS'Appointment/Procedure_Time'
p28
aS'Appointment/Procedure_City'
p29
aS'Appointment/Procedure_Ward'
p30
aS'Medication_Medicine'
p31
aS'Medication_Dosage'
p32
aS'Medication_Status'
p33
aS'Future_Alert/Warning/AbnormalResult'
p34
aS'Future_Goal/TaskToBeCompleted/ExpectedOutcome'
p35
aS'Future_Discharge/TransferPlan'
p36
aS'NA'
p37
a.